; Function Attrs: mustprogress noreturn uwtable
define void @_ZN2cv7directx23convertToD3D11Texture2DERKNS_11_InputArrayEP15ID3D11Texture2D(ptr nocapture noundef nonnull readnone align 8 dereferenceable(24) %0, ptr nocapture noundef readnone %1) local_unnamed_addr #0 personality ptr @__gxx_personality_v0 {
  %3 = alloca %"class.std::__cxx11::basic_string", align 8
  %4 = alloca %"class.std::allocator", align 1
  call void @_ZNSaIcEC1Ev(ptr noundef nonnull align 1 dereferenceable(1) %4) #4
  invoke void @_ZNSt7__cxx1112basic_stringIcSt11char_traitsIcESaIcEEC1EPKcRKS3_(ptr noundef nonnull align 8 dereferenceable(32) %3, ptr noundef nonnull @.str, ptr noundef nonnull align 1 dereferenceable(1) %4)
          to label %5 unwind label %7

5:                                                ; preds = %2
  invoke void @_ZN2cv5errorEiRKNSt7__cxx1112basic_stringIcSt11char_traitsIcESaIcEEEPKcS9_i(i32 noundef -6, ptr noundef nonnull align 8 dereferenceable(32) %3, ptr noundef nonnull @__func__._ZN2cv7directx23convertToD3D11Texture2DERKNS_11_InputArrayEP15ID3D11Texture2D, ptr noundef nonnull @.str.1, i32 noundef 1351) #5
          to label %6 unwind label %9

6:                                                ; preds = %5
  unreachable

7:                                                ; preds = %2
  %8 = landingpad { ptr, i32 }
          cleanup
  br label %11

9:                                                ; preds = %5
  %10 = landingpad { ptr, i32 }
          cleanup
  call void @_ZNSt7__cxx1112basic_stringIcSt11char_traitsIcESaIcEED1Ev(ptr noundef nonnull align 8 dereferenceable(32) %3) #4
  br label %11

11:                                               ; preds = %9, %7
  %.pn = phi { ptr, i32 } [ %10, %9 ], [ %8, %7 ]
  call void @_ZNSaIcED1Ev(ptr noundef nonnull align 1 dereferenceable(1) %4) #4
  resume { ptr, i32 } %.pn
}